target datalayout = "e-m:e-p270:32:32-p271:32:32-p272:64:64-i64:64-i128:128-f80:128-n8:16:32:64-S128"
target triple = "x86_64-pc-linux-gnu"

%"class.std::vector" = type { %"struct.std::_Vector_base" }
%"struct.std::_Vector_base" = type { %"struct.std::_Vector_base<int, std::allocator<int>>::_Vector_impl" }
%"struct.std::_Vector_base<int, std::allocator<int>>::_Vector_impl" = type { %"struct.std::_Vector_base<int, std::allocator<int>>::_Vector_impl_data" }
%"struct.std::_Vector_base<int, std::allocator<int>>::_Vector_impl_data" = type { ptr, ptr, ptr }

@_ZN10Bookkeeper19vars_with_bitfieldsE = dso_local global %"class.std::vector" zeroinitializer, align 8
@_ZN10Bookkeeper24vars_with_full_bitfieldsE = dso_local global %"class.std::vector" zeroinitializer, align 8
@_ZN10Bookkeeper37vars_with_bitfields_address_taken_cntE = dso_local global i32 0, align 4
@_ZN10Bookkeeper18bitfields_in_totalE = dso_local global i32 0, align 4
@_ZN10Bookkeeper25unamed_bitfields_in_totalE = dso_local global i32 0, align 4
@_ZN10Bookkeeper24const_bitfields_in_totalE = dso_local global i32 0, align 4
@_ZN10Bookkeeper27volatile_bitfields_in_totalE = dso_local global i32 0, align 4
@_ZN10Bookkeeper30lhs_bitfields_structs_vars_cntE = dso_local global i32 0, align 4
@_ZN10Bookkeeper30rhs_bitfields_structs_vars_cntE = dso_local global i32 0, align 4
@_ZN10Bookkeeper16lhs_bitfield_cntE = dso_local global i32 0, align 4
@_ZN10Bookkeeper16rhs_bitfield_cntE = dso_local global i32 0, align 4
@.str.44 = private unnamed_addr constant [40 x i8] c"non-zero bitfields defined in structs: \00", align 1
@.str.45 = private unnamed_addr constant [36 x i8] c"zero bitfields defined in structs: \00", align 1
@.str.46 = private unnamed_addr constant [37 x i8] c"const bitfields defined in structs: \00", align 1
@.str.47 = private unnamed_addr constant [40 x i8] c"volatile bitfields defined in structs: \00", align 1
@.str.48 = private unnamed_addr constant [40 x i8] c"structs with bitfields in the program: \00", align 1
@.str.49 = private unnamed_addr constant [15 x i8] c"indirect level\00", align 1
@.str.50 = private unnamed_addr constant [40 x i8] c"full-bitfields structs in the program: \00", align 1
@.str.51 = private unnamed_addr constant [46 x i8] c"times a bitfields struct's address is taken: \00", align 1
@.str.52 = private unnamed_addr constant [34 x i8] c"times a bitfields struct on LHS: \00", align 1
@.str.53 = private unnamed_addr constant [34 x i8] c"times a bitfields struct on RHS: \00", align 1
@.str.54 = private unnamed_addr constant [33 x i8] c"times a single bitfield on LHS: \00", align 1
@.str.55 = private unnamed_addr constant [33 x i8] c"times a single bitfield on RHS: \00", align 1

; Function Attrs: mustprogress uwtable
define available_externally noundef nonnull align 8 dereferenceable(8) ptr @_ZNSolsEPFRSoS_E(ptr noundef nonnull align 8 dereferenceable(8) %0, ptr noundef %1) #5 align 2 {
  %3 = alloca ptr, align 8
  %4 = alloca ptr, align 8
  store ptr %0, ptr %3, align 8, !tbaa !80
  store ptr %1, ptr %4, align 8, !tbaa !84
  %5 = load ptr, ptr %3, align 8
  %6 = load ptr, ptr %4, align 8, !tbaa !84
  %7 = call noundef nonnull align 8 dereferenceable(8) ptr %6(ptr noundef nonnull align 8 dereferenceable(8) %5)
  ret ptr %7
}

; Function Attrs: mustprogress uwtable
define dso_local void @_ZN10Bookkeeper16output_bitfieldsERSo(ptr noundef nonnull align 8 dereferenceable(8) %0) #5 align 2 {
  %2 = alloca ptr, align 8
  store ptr %0, ptr %2, align 8, !tbaa !80
  %3 = call noundef zeroext i1 @_ZN9CGOptions9bitfieldsEv()
  br i1 %3, label %4, label %27

4:                                                ; preds = %1
  %5 = load ptr, ptr %2, align 8, !tbaa !80
  %6 = call noundef nonnull align 8 dereferenceable(8) ptr @_ZNSolsEPFRSoS_E(ptr noundef nonnull align 8 dereferenceable(8) %5, ptr noundef @_ZSt4endlIcSt11char_traitsIcEERSt13basic_ostreamIT_T0_ES6_)
  %7 = load ptr, ptr %2, align 8, !tbaa !80
  %8 = load i32, ptr @_ZN10Bookkeeper18bitfields_in_totalE, align 4, !tbaa !15
  call void @_ZL15formated_outputRSoPKci(ptr noundef nonnull align 8 dereferenceable(8) %7, ptr noundef @.str.44, i32 noundef %8)
  %9 = load ptr, ptr %2, align 8, !tbaa !80
  %10 = load i32, ptr @_ZN10Bookkeeper25unamed_bitfields_in_totalE, align 4, !tbaa !15
  call void @_ZL15formated_outputRSoPKci(ptr noundef nonnull align 8 dereferenceable(8) %9, ptr noundef @.str.45, i32 noundef %10)
  %11 = load ptr, ptr %2, align 8, !tbaa !80
  %12 = load i32, ptr @_ZN10Bookkeeper24const_bitfields_in_totalE, align 4, !tbaa !15
  call void @_ZL15formated_outputRSoPKci(ptr noundef nonnull align 8 dereferenceable(8) %11, ptr noundef @.str.46, i32 noundef %12)
  %13 = load ptr, ptr %2, align 8, !tbaa !80
  %14 = load i32, ptr @_ZN10Bookkeeper27volatile_bitfields_in_totalE, align 4, !tbaa !15
  call void @_ZL15formated_outputRSoPKci(ptr noundef nonnull align 8 dereferenceable(8) %13, ptr noundef @.str.47, i32 noundef %14)
  %15 = load ptr, ptr %2, align 8, !tbaa !80
  call void @_ZN10Bookkeeper15output_countersERSoPKcS2_RKSt6vectorIiSaIiEEi(ptr noundef nonnull align 8 dereferenceable(8) %15, ptr noundef @.str.48, ptr noundef @.str.49, ptr noundef nonnull align 8 dereferenceable(24) @_ZN10Bookkeeper19vars_with_bitfieldsE, i32 noundef 0)
  %16 = load ptr, ptr %2, align 8, !tbaa !80
  call void @_ZN10Bookkeeper15output_countersERSoPKcS2_RKSt6vectorIiSaIiEEi(ptr noundef nonnull align 8 dereferenceable(8) %16, ptr noundef @.str.50, ptr noundef @.str.49, ptr noundef nonnull align 8 dereferenceable(24) @_ZN10Bookkeeper24vars_with_full_bitfieldsE, i32 noundef 0)
  %17 = load ptr, ptr %2, align 8, !tbaa !80
  %18 = load i32, ptr @_ZN10Bookkeeper37vars_with_bitfields_address_taken_cntE, align 4, !tbaa !15
  call void @_ZL15formated_outputRSoPKci(ptr noundef nonnull align 8 dereferenceable(8) %17, ptr noundef @.str.51, i32 noundef %18)
  %19 = load ptr, ptr %2, align 8, !tbaa !80
  %20 = load i32, ptr @_ZN10Bookkeeper30lhs_bitfields_structs_vars_cntE, align 4, !tbaa !15
  call void @_ZL15formated_outputRSoPKci(ptr noundef nonnull align 8 dereferenceable(8) %19, ptr noundef @.str.52, i32 noundef %20)
  %21 = load ptr, ptr %2, align 8, !tbaa !80
  %22 = load i32, ptr @_ZN10Bookkeeper30rhs_bitfields_structs_vars_cntE, align 4, !tbaa !15
  call void @_ZL15formated_outputRSoPKci(ptr noundef nonnull align 8 dereferenceable(8) %21, ptr noundef @.str.53, i32 noundef %22)
  %23 = load ptr, ptr %2, align 8, !tbaa !80
  %24 = load i32, ptr @_ZN10Bookkeeper16lhs_bitfield_cntE, align 4, !tbaa !15
  call void @_ZL15formated_outputRSoPKci(ptr noundef nonnull align 8 dereferenceable(8) %23, ptr noundef @.str.54, i32 noundef %24)
  %25 = load ptr, ptr %2, align 8, !tbaa !80
  %26 = load i32, ptr @_ZN10Bookkeeper16rhs_bitfield_cntE, align 4, !tbaa !15
  call void @_ZL15formated_outputRSoPKci(ptr noundef nonnull align 8 dereferenceable(8) %25, ptr noundef @.str.55, i32 noundef %26)
  br label %27

27:                                               ; preds = %4, %1
  ret void
}