; Function Attrs: mustprogress uwtable
define dso_local void @_ZN10Bookkeeper16output_bitfieldsERSo(ptr noundef nonnull align 8 dereferenceable(8) %0) local_unnamed_addr #6 align 2 {
  %2 = tail call noundef zeroext i1 @_ZN9CGOptions9bitfieldsEv()
  br i1 %2, label %3, label %32

3:                                                ; preds = %1
  %4 = load ptr, ptr %0, align 8, !tbaa !19
  %5 = getelementptr i8, ptr %4, i64 -24
  %6 = load i64, ptr %5, align 8
  %7 = getelementptr inbounds i8, ptr %0, i64 %6
  %8 = getelementptr inbounds nuw i8, ptr %7, i64 240
  %9 = load ptr, ptr %8, align 8, !tbaa !70
  %.not.i.i.i = icmp eq ptr %9, null
  br i1 %.not.i.i.i, label %10, label %_ZSt13__check_facetISt5ctypeIcEERKT_PS3_.exit.i.i

10:                                               ; preds = %3
  tail call void @_ZSt16__throw_bad_castv() #20
  unreachable

_ZSt13__check_facetISt5ctypeIcEERKT_PS3_.exit.i.i: ; preds = %3
  %11 = getelementptr inbounds nuw i8, ptr %9, i64 56
  %12 = load i8, ptr %11, align 8, !tbaa !85
  %.not.i1.i.i = icmp eq i8 %12, 0
  br i1 %.not.i1.i.i, label %16, label %13

13:                                               ; preds = %_ZSt13__check_facetISt5ctypeIcEERKT_PS3_.exit.i.i
  %14 = getelementptr inbounds nuw i8, ptr %9, i64 67
  %15 = load i8, ptr %14, align 1, !tbaa !90
  br label %_ZSt4endlIcSt11char_traitsIcEERSt13basic_ostreamIT_T0_ES6_.exit

16:                                               ; preds = %_ZSt13__check_facetISt5ctypeIcEERKT_PS3_.exit.i.i
  tail call void @_ZNKSt5ctypeIcE13_M_widen_initEv(ptr noundef nonnull align 8 dereferenceable(570) %9)
  %17 = load ptr, ptr %9, align 8, !tbaa !19
  %18 = getelementptr inbounds nuw i8, ptr %17, i64 48
  %19 = load ptr, ptr %18, align 8
  %20 = tail call noundef signext i8 %19(ptr noundef nonnull align 8 dereferenceable(570) %9, i8 noundef signext 10)
  br label %_ZSt4endlIcSt11char_traitsIcEERSt13basic_ostreamIT_T0_ES6_.exit

_ZSt4endlIcSt11char_traitsIcEERSt13basic_ostreamIT_T0_ES6_.exit: ; preds = %13, %16
  %.0.i.i.i = phi i8 [ %15, %13 ], [ %20, %16 ]
  %21 = tail call noundef nonnull align 8 dereferenceable(8) ptr @_ZNSo3putEc(ptr noundef nonnull align 8 dereferenceable(8) %0, i8 noundef signext %.0.i.i.i)
  %22 = tail call noundef nonnull align 8 dereferenceable(8) ptr @_ZNSo5flushEv(ptr noundef nonnull align 8 dereferenceable(8) %21)
  %23 = load i32, ptr @_ZN10Bookkeeper18bitfields_in_totalE, align 4, !tbaa !12
  tail call fastcc void @_ZL15formated_outputRSoPKci(ptr noundef nonnull align 8 dereferenceable(8) %0, ptr noundef nonnull @.str.44, i32 noundef %23)
  %24 = load i32, ptr @_ZN10Bookkeeper25unamed_bitfields_in_totalE, align 4, !tbaa !12
  tail call fastcc void @_ZL15formated_outputRSoPKci(ptr noundef nonnull align 8 dereferenceable(8) %0, ptr noundef nonnull @.str.45, i32 noundef %24)
  %25 = load i32, ptr @_ZN10Bookkeeper24const_bitfields_in_totalE, align 4, !tbaa !12
  tail call fastcc void @_ZL15formated_outputRSoPKci(ptr noundef nonnull align 8 dereferenceable(8) %0, ptr noundef nonnull @.str.46, i32 noundef %25)
  %26 = load i32, ptr @_ZN10Bookkeeper27volatile_bitfields_in_totalE, align 4, !tbaa !12
  tail call fastcc void @_ZL15formated_outputRSoPKci(ptr noundef nonnull align 8 dereferenceable(8) %0, ptr noundef nonnull @.str.47, i32 noundef %26)
  tail call void @_ZN10Bookkeeper15output_countersERSoPKcS2_RKSt6vectorIiSaIiEEi(ptr noundef nonnull align 8 dereferenceable(8) %0, ptr noundef nonnull @.str.48, ptr noundef nonnull @.str.49, ptr noundef nonnull align 8 dereferenceable(24) @_ZN10Bookkeeper19vars_with_bitfieldsE, i32 noundef 0)
  tail call void @_ZN10Bookkeeper15output_countersERSoPKcS2_RKSt6vectorIiSaIiEEi(ptr noundef nonnull align 8 dereferenceable(8) %0, ptr noundef nonnull @.str.50, ptr noundef nonnull @.str.49, ptr noundef nonnull align 8 dereferenceable(24) @_ZN10Bookkeeper24vars_with_full_bitfieldsE, i32 noundef 0)
  %27 = load i32, ptr @_ZN10Bookkeeper37vars_with_bitfields_address_taken_cntE, align 4, !tbaa !12
  tail call fastcc void @_ZL15formated_outputRSoPKci(ptr noundef nonnull align 8 dereferenceable(8) %0, ptr noundef nonnull @.str.51, i32 noundef %27)
  %28 = load i32, ptr @_ZN10Bookkeeper30lhs_bitfields_structs_vars_cntE, align 4, !tbaa !12
  tail call fastcc void @_ZL15formated_outputRSoPKci(ptr noundef nonnull align 8 dereferenceable(8) %0, ptr noundef nonnull @.str.52, i32 noundef %28)
  %29 = load i32, ptr @_ZN10Bookkeeper30rhs_bitfields_structs_vars_cntE, align 4, !tbaa !12
  tail call fastcc void @_ZL15formated_outputRSoPKci(ptr noundef nonnull align 8 dereferenceable(8) %0, ptr noundef nonnull @.str.53, i32 noundef %29)
  %30 = load i32, ptr @_ZN10Bookkeeper16lhs_bitfield_cntE, align 4, !tbaa !12
  tail call fastcc void @_ZL15formated_outputRSoPKci(ptr noundef nonnull align 8 dereferenceable(8) %0, ptr noundef nonnull @.str.54, i32 noundef %30)
  %31 = load i32, ptr @_ZN10Bookkeeper16rhs_bitfield_cntE, align 4, !tbaa !12
  tail call fastcc void @_ZL15formated_outputRSoPKci(ptr noundef nonnull align 8 dereferenceable(8) %0, ptr noundef nonnull @.str.55, i32 noundef %31)
  br label %32

32:                                               ; preds = %_ZSt4endlIcSt11char_traitsIcEERSt13basic_ostreamIT_T0_ES6_.exit, %1
  ret void
}